; Function Attrs: mustprogress nofree norecurse nosync nounwind memory(readwrite, inaccessiblemem: none) uwtable
define hidden void @_ZN6BitMap16set_intersectionERKS_(ptr nocapture noundef nonnull readonly align 8 dereferenceable(16) %0, ptr nocapture noundef nonnull readonly align 8 dereferenceable(16) %1) local_unnamed_addr #5 align 2 {
  %3 = load ptr, ptr %0, align 8
  %4 = load ptr, ptr %1, align 8
  %5 = getelementptr inbounds i8, ptr %0, i64 8
  %6 = load i64, ptr %5, align 8
  %7 = lshr i64 %6, 6
  %.not21 = icmp ult i64 %6, 64
  br i1 %.not21, label %._crit_edge, label %.lr.ph

.lr.ph:                                           ; preds = %2, %.lr.ph
  %.020 = phi i64 [ %13, %.lr.ph ], [ 0, %2 ]
  %8 = getelementptr inbounds i64, ptr %4, i64 %.020
  %9 = load i64, ptr %8, align 8
  %10 = getelementptr inbounds i64, ptr %3, i64 %.020
  %11 = load i64, ptr %10, align 8
  %12 = and i64 %11, %9
  store i64 %12, ptr %10, align 8
  %13 = add nuw nsw i64 %.020, 1
  %exitcond.not = icmp eq i64 %13, %7
  br i1 %exitcond.not, label %._crit_edge.loopexit, label %.lr.ph, !llvm.loop !16

._crit_edge.loopexit:                             ; preds = %.lr.ph
  %.pre = load i64, ptr %5, align 8
  br label %._crit_edge

._crit_edge:                                      ; preds = %._crit_edge.loopexit, %2
  %14 = phi i64 [ %.pre, %._crit_edge.loopexit ], [ %6, %2 ]
  %15 = and i64 %14, 63
  %.not = icmp eq i64 %15, 0
  br i1 %.not, label %23, label %16

16:                                               ; preds = %._crit_edge
  %17 = getelementptr inbounds i64, ptr %3, i64 %7
  %18 = load i64, ptr %17, align 8
  %19 = getelementptr inbounds i64, ptr %4, i64 %7
  %20 = load i64, ptr %19, align 8
  %notmask.i.i = shl nsw i64 -1, %15
  %21 = or i64 %20, %notmask.i.i
  %22 = and i64 %21, %18
  store i64 %22, ptr %17, align 8
  br label %23

23:                                               ; preds = %16, %._crit_edge
  ret void
}